target datalayout = "e-m:e-p270:32:32-p271:32:32-p272:64:64-i64:64-i128:128-f80:128-n8:16:32:64-S128"
target triple = "x86_64-pc-linux-gnu"

%"class.cvc5::internal::expr::NodeValue" = type { i64, i64, ptr, [0 x ptr] }

; Function Attrs: inlinehint mustprogress nounwind uwtable
define linkonce_odr hidden noundef i32 @_ZN4cvc58internal4expr9NodeValue11dKindToKindEj(i32 noundef %0) #7 comdat align 2 {
  %2 = alloca i32, align 4
  store i32 %0, ptr %2, align 4, !tbaa !28
  %3 = load i32, ptr %2, align 4, !tbaa !28
  %4 = icmp eq i32 %3, 1023
  br i1 %4, label %5, label %6

5:                                                ; preds = %1
  br label %8

6:                                                ; preds = %1
  %7 = load i32, ptr %2, align 4, !tbaa !28
  br label %8

8:                                                ; preds = %6, %5
  %9 = phi i32 [ -1, %5 ], [ %7, %6 ]
  ret i32 %9
}

; Function Attrs: mustprogress nounwind uwtable
define hidden noundef nonnull align 4 dereferenceable(4) ptr @_ZNK4cvc58internal4expr9NodeValue8getConstINS0_4kind6Kind_tEEERKT_v(ptr noundef nonnull align 8 dereferenceable(24) %0) #9 align 2 {
  %2 = alloca ptr, align 8
  store ptr %0, ptr %2, align 8, !tbaa !3
  %3 = load ptr, ptr %2, align 8
  %4 = getelementptr inbounds nuw %"class.cvc5::internal::expr::NodeValue", ptr %3, i32 0, i32 1
  %5 = load i64, ptr %4, align 8
  %6 = lshr i64 %5, 32
  %7 = and i64 %6, 67108863
  %8 = trunc i64 %7 to i32
  %9 = icmp eq i32 %8, 0
  br i1 %9, label %10, label %13

10:                                               ; preds = %1
  %11 = getelementptr inbounds nuw %"class.cvc5::internal::expr::NodeValue", ptr %3, i32 0, i32 3
  %12 = getelementptr inbounds [0 x ptr], ptr %11, i64 0, i64 0
  br label %17

13:                                               ; preds = %1
  %14 = getelementptr inbounds nuw %"class.cvc5::internal::expr::NodeValue", ptr %3, i32 0, i32 3
  %15 = getelementptr inbounds [0 x ptr], ptr %14, i64 0, i64 0
  %16 = load ptr, ptr %15, align 8, !tbaa !3
  br label %17

17:                                               ; preds = %13, %10
  %18 = phi ptr [ %12, %10 ], [ %16, %13 ]
  ret ptr %18
}

; Function Attrs: mustprogress nounwind uwtable
define linkonce_odr hidden noundef i32 @_ZNK4cvc58internal4expr9NodeValue7getKindEv(ptr noundef nonnull align 8 dereferenceable(24) %0) #9 comdat align 2 {
  %2 = alloca ptr, align 8
  store ptr %0, ptr %2, align 8, !tbaa !3
  %3 = load ptr, ptr %2, align 8
  %4 = getelementptr inbounds nuw %"class.cvc5::internal::expr::NodeValue", ptr %3, i32 0, i32 1
  %5 = load i64, ptr %4, align 8
  %6 = and i64 %5, 1023
  %7 = trunc i64 %6 to i32
  %8 = call noundef i32 @_ZN4cvc58internal4expr9NodeValue11dKindToKindEj(i32 noundef %7)
  ret i32 %8
}

; Function Attrs: mustprogress uwtable
define hidden noundef i32 @_ZN4cvc58internal4kind14operatorToKindEPNS0_4expr9NodeValueE(ptr noundef %0) #4 {
  %2 = alloca i32, align 4
  %3 = alloca ptr, align 8
  %4 = alloca i32, align 4
  %5 = alloca i32, align 4
  store ptr %0, ptr %3, align 8, !tbaa !3
  %6 = load ptr, ptr %3, align 8, !tbaa !3
  %7 = call noundef i32 @_ZNK4cvc58internal4expr9NodeValue7getKindEv(ptr noundef nonnull align 8 dereferenceable(24) %6)
  %8 = icmp eq i32 %7, 4
  br i1 %8, label %9, label %13

9:                                                ; preds = %1
  %10 = load ptr, ptr %3, align 8, !tbaa !3
  %11 = call noundef nonnull align 4 dereferenceable(4) ptr @_ZNK4cvc58internal4expr9NodeValue8getConstINS0_4kind6Kind_tEEERKT_v(ptr noundef nonnull align 8 dereferenceable(24) %10)
  %12 = load i32, ptr %11, align 4, !tbaa !12
  store i32 %12, ptr %2, align 4
  br label %66

13:                                               ; preds = %1
  %14 = load ptr, ptr %3, align 8, !tbaa !3
  %15 = call noundef i32 @_ZNK4cvc58internal4expr9NodeValue7getKindEv(ptr noundef nonnull align 8 dereferenceable(24) %14)
  %16 = icmp eq i32 %15, 29
  br i1 %16, label %17, label %18

17:                                               ; preds = %13
  store i32 27, ptr %2, align 4
  br label %66

18:                                               ; preds = %13
  br label %19

19:                                               ; preds = %18
  call void @llvm.lifetime.start.p0(i64 4, ptr %4) #3
  %20 = load ptr, ptr %3, align 8, !tbaa !3
  %21 = call noundef i32 @_ZNK4cvc58internal4expr9NodeValue7getKindEv(ptr noundef nonnull align 8 dereferenceable(24) %20)
  store i32 %21, ptr %4, align 4, !tbaa !12
  %22 = load i32, ptr %4, align 4, !tbaa !12
  switch i32 %22, label %64 [
    i32 16, label %23
    i32 7, label %24
    i32 31, label %25
    i32 33, label %26
    i32 37, label %27
    i32 70, label %28
    i32 73, label %29
    i32 79, label %30
    i32 85, label %31
    i32 137, label %32
    i32 139, label %33
    i32 141, label %34
    i32 143, label %35
    i32 145, label %36
    i32 147, label %37
    i32 149, label %38
    i32 187, label %39
    i32 189, label %40
    i32 191, label %41
    i32 193, label %42
    i32 195, label %43
    i32 197, label %44
    i32 199, label %45
    i32 201, label %46
    i32 203, label %47
    i32 231, label %48
    i32 221, label %49
    i32 222, label %50
    i32 223, label %51
    i32 232, label %52
    i32 241, label %53
    i32 273, label %54
    i32 275, label %55
    i32 277, label %56
    i32 285, label %57
    i32 307, label %58
    i32 309, label %59
    i32 311, label %60
    i32 313, label %61
    i32 359, label %62
    i32 361, label %63
  ]

23:                                               ; preds = %19
  store i32 17, ptr %2, align 4
  store i32 1, ptr %5, align 4
  br label %65

24:                                               ; preds = %19
  store i32 27, ptr %2, align 4
  store i32 1, ptr %5, align 4
  br label %65

25:                                               ; preds = %19
  store i32 32, ptr %2, align 4
  store i32 1, ptr %5, align 4
  br label %65

26:                                               ; preds = %19
  store i32 34, ptr %2, align 4
  store i32 1, ptr %5, align 4
  br label %65

27:                                               ; preds = %19
  store i32 38, ptr %2, align 4
  store i32 1, ptr %5, align 4
  br label %65

28:                                               ; preds = %19
  store i32 51, ptr %2, align 4
  store i32 1, ptr %5, align 4
  br label %65

29:                                               ; preds = %19
  store i32 74, ptr %2, align 4
  store i32 1, ptr %5, align 4
  br label %65

30:                                               ; preds = %19
  store i32 80, ptr %2, align 4
  store i32 1, ptr %5, align 4
  br label %65

31:                                               ; preds = %19
  store i32 86, ptr %2, align 4
  store i32 1, ptr %5, align 4
  br label %65

32:                                               ; preds = %19
  store i32 138, ptr %2, align 4
  store i32 1, ptr %5, align 4
  br label %65

33:                                               ; preds = %19
  store i32 140, ptr %2, align 4
  store i32 1, ptr %5, align 4
  br label %65

34:                                               ; preds = %19
  store i32 142, ptr %2, align 4
  store i32 1, ptr %5, align 4
  br label %65

35:                                               ; preds = %19
  store i32 144, ptr %2, align 4
  store i32 1, ptr %5, align 4
  br label %65

36:                                               ; preds = %19
  store i32 146, ptr %2, align 4
  store i32 1, ptr %5, align 4
  br label %65

37:                                               ; preds = %19
  store i32 148, ptr %2, align 4
  store i32 1, ptr %5, align 4
  br label %65

38:                                               ; preds = %19
  store i32 150, ptr %2, align 4
  store i32 1, ptr %5, align 4
  br label %65

39:                                               ; preds = %19
  store i32 188, ptr %2, align 4
  store i32 1, ptr %5, align 4
  br label %65

40:                                               ; preds = %19
  store i32 190, ptr %2, align 4
  store i32 1, ptr %5, align 4
  br label %65

41:                                               ; preds = %19
  store i32 192, ptr %2, align 4
  store i32 1, ptr %5, align 4
  br label %65

42:                                               ; preds = %19
  store i32 194, ptr %2, align 4
  store i32 1, ptr %5, align 4
  br label %65

43:                                               ; preds = %19
  store i32 196, ptr %2, align 4
  store i32 1, ptr %5, align 4
  br label %65

44:                                               ; preds = %19
  store i32 198, ptr %2, align 4
  store i32 1, ptr %5, align 4
  br label %65

45:                                               ; preds = %19
  store i32 200, ptr %2, align 4
  store i32 1, ptr %5, align 4
  br label %65

46:                                               ; preds = %19
  store i32 202, ptr %2, align 4
  store i32 1, ptr %5, align 4
  br label %65

47:                                               ; preds = %19
  store i32 204, ptr %2, align 4
  store i32 1, ptr %5, align 4
  br label %65

48:                                               ; preds = %19
  store i32 224, ptr %2, align 4
  store i32 1, ptr %5, align 4
  br label %65

49:                                               ; preds = %19
  store i32 225, ptr %2, align 4
  store i32 1, ptr %5, align 4
  br label %65

50:                                               ; preds = %19
  store i32 226, ptr %2, align 4
  store i32 1, ptr %5, align 4
  br label %65

51:                                               ; preds = %19
  store i32 227, ptr %2, align 4
  store i32 1, ptr %5, align 4
  br label %65

52:                                               ; preds = %19
  store i32 231, ptr %2, align 4
  store i32 1, ptr %5, align 4
  br label %65

53:                                               ; preds = %19
  store i32 242, ptr %2, align 4
  store i32 1, ptr %5, align 4
  br label %65

54:                                               ; preds = %19
  store i32 274, ptr %2, align 4
  store i32 1, ptr %5, align 4
  br label %65

55:                                               ; preds = %19
  store i32 276, ptr %2, align 4
  store i32 1, ptr %5, align 4
  br label %65

56:                                               ; preds = %19
  store i32 278, ptr %2, align 4
  store i32 1, ptr %5, align 4
  br label %65

57:                                               ; preds = %19
  store i32 286, ptr %2, align 4
  store i32 1, ptr %5, align 4
  br label %65

58:                                               ; preds = %19
  store i32 308, ptr %2, align 4
  store i32 1, ptr %5, align 4
  br label %65

59:                                               ; preds = %19
  store i32 310, ptr %2, align 4
  store i32 1, ptr %5, align 4
  br label %65

60:                                               ; preds = %19
  store i32 312, ptr %2, align 4
  store i32 1, ptr %5, align 4
  br label %65

61:                                               ; preds = %19
  store i32 314, ptr %2, align 4
  store i32 1, ptr %5, align 4
  br label %65

62:                                               ; preds = %19
  store i32 360, ptr %2, align 4
  store i32 1, ptr %5, align 4
  br label %65

63:                                               ; preds = %19
  store i32 362, ptr %2, align 4
  store i32 1, ptr %5, align 4
  br label %65

64:                                               ; preds = %19
  store i32 -1, ptr %2, align 4
  store i32 1, ptr %5, align 4
  br label %65

65:                                               ; preds = %64, %63, %62, %61, %60, %59, %58, %57, %56, %55, %54, %53, %52, %51, %50, %49, %48, %47, %46, %45, %44, %43, %42, %41, %40, %39, %38, %37, %36, %35, %34, %33, %32, %31, %30, %29, %28, %27, %26, %25, %24, %23
  call void @llvm.lifetime.end.p0(i64 4, ptr %4) #3
  br label %66

66:                                               ; preds = %65, %17, %9
  %67 = load i32, ptr %2, align 4
  ret i32 %67
}