; Function Attrs: mustprogress nofree norecurse nosync nounwind willreturn memory(read, inaccessiblemem: none) uwtable
define hidden noundef i32 @_ZN4cvc58internal4kind14operatorToKindEPNS0_4expr9NodeValueE(ptr noundef readonly captures(none) %0) local_unnamed_addr #11 {
  %2 = getelementptr inbounds nuw i8, ptr %0, i64 8
  %3 = load i64, ptr %2, align 8
  %4 = trunc i64 %3 to i32
  %5 = and i32 %4, 1023
  switch i32 %5, label %53 [
    i32 4, label %6
    i32 29, label %54
    i32 16, label %.fold.split
    i32 7, label %54
    i32 31, label %14
    i32 33, label %15
    i32 37, label %16
    i32 70, label %17
    i32 73, label %18
    i32 79, label %19
    i32 85, label %20
    i32 137, label %21
    i32 139, label %22
    i32 141, label %23
    i32 143, label %24
    i32 145, label %25
    i32 147, label %26
    i32 149, label %27
    i32 187, label %28
    i32 189, label %29
    i32 191, label %30
    i32 193, label %31
    i32 195, label %32
    i32 197, label %33
    i32 199, label %34
    i32 201, label %35
    i32 203, label %36
    i32 231, label %37
    i32 221, label %38
    i32 222, label %39
    i32 223, label %40
    i32 232, label %41
    i32 241, label %42
    i32 273, label %43
    i32 275, label %44
    i32 277, label %45
    i32 285, label %46
    i32 307, label %47
    i32 309, label %48
    i32 311, label %49
    i32 313, label %50
    i32 359, label %51
    i32 361, label %52
  ]

6:                                                ; preds = %1
  %7 = and i64 %3, 288230371856744448
  %8 = icmp eq i64 %7, 0
  %9 = getelementptr inbounds nuw i8, ptr %0, i64 24
  br i1 %8, label %_ZNK4cvc58internal4expr9NodeValue8getConstINS0_4kind6Kind_tEEERKT_v.exit, label %10

10:                                               ; preds = %6
  %11 = load ptr, ptr %9, align 8, !tbaa !7
  br label %_ZNK4cvc58internal4expr9NodeValue8getConstINS0_4kind6Kind_tEEERKT_v.exit

_ZNK4cvc58internal4expr9NodeValue8getConstINS0_4kind6Kind_tEEERKT_v.exit: ; preds = %6, %10
  %12 = phi ptr [ %11, %10 ], [ %9, %6 ]
  %13 = load i32, ptr %12, align 4, !tbaa !12
  br label %54

14:                                               ; preds = %1
  br label %54

15:                                               ; preds = %1
  br label %54

16:                                               ; preds = %1
  br label %54

17:                                               ; preds = %1
  br label %54

18:                                               ; preds = %1
  br label %54

19:                                               ; preds = %1
  br label %54

20:                                               ; preds = %1
  br label %54

21:                                               ; preds = %1
  br label %54

22:                                               ; preds = %1
  br label %54

23:                                               ; preds = %1
  br label %54

24:                                               ; preds = %1
  br label %54

25:                                               ; preds = %1
  br label %54

26:                                               ; preds = %1
  br label %54

27:                                               ; preds = %1
  br label %54

28:                                               ; preds = %1
  br label %54

29:                                               ; preds = %1
  br label %54

30:                                               ; preds = %1
  br label %54

31:                                               ; preds = %1
  br label %54

32:                                               ; preds = %1
  br label %54

33:                                               ; preds = %1
  br label %54

34:                                               ; preds = %1
  br label %54

35:                                               ; preds = %1
  br label %54

36:                                               ; preds = %1
  br label %54

37:                                               ; preds = %1
  br label %54

38:                                               ; preds = %1
  br label %54

39:                                               ; preds = %1
  br label %54

40:                                               ; preds = %1
  br label %54

41:                                               ; preds = %1
  br label %54

42:                                               ; preds = %1
  br label %54

43:                                               ; preds = %1
  br label %54

44:                                               ; preds = %1
  br label %54

45:                                               ; preds = %1
  br label %54

46:                                               ; preds = %1
  br label %54

47:                                               ; preds = %1
  br label %54

48:                                               ; preds = %1
  br label %54

49:                                               ; preds = %1
  br label %54

50:                                               ; preds = %1
  br label %54

51:                                               ; preds = %1
  br label %54

52:                                               ; preds = %1
  br label %54

53:                                               ; preds = %1
  br label %54

.fold.split:                                      ; preds = %1
  br label %54

54:                                               ; preds = %1, %1, %.fold.split, %14, %15, %16, %17, %18, %19, %20, %21, %22, %23, %24, %25, %26, %27, %28, %29, %30, %31, %32, %33, %34, %35, %36, %37, %38, %39, %40, %41, %42, %43, %44, %45, %46, %47, %48, %49, %50, %51, %52, %53, %_ZNK4cvc58internal4expr9NodeValue8getConstINS0_4kind6Kind_tEEERKT_v.exit
  %.0 = phi i32 [ %13, %_ZNK4cvc58internal4expr9NodeValue8getConstINS0_4kind6Kind_tEEERKT_v.exit ], [ -1, %53 ], [ 362, %52 ], [ 360, %51 ], [ 314, %50 ], [ 312, %49 ], [ 310, %48 ], [ 308, %47 ], [ 286, %46 ], [ 278, %45 ], [ 276, %44 ], [ 274, %43 ], [ 242, %42 ], [ 231, %41 ], [ 227, %40 ], [ 226, %39 ], [ 225, %38 ], [ 224, %37 ], [ 204, %36 ], [ 202, %35 ], [ 200, %34 ], [ 198, %33 ], [ 196, %32 ], [ 194, %31 ], [ 192, %30 ], [ 190, %29 ], [ 188, %28 ], [ 150, %27 ], [ 148, %26 ], [ 146, %25 ], [ 144, %24 ], [ 142, %23 ], [ 140, %22 ], [ 138, %21 ], [ 86, %20 ], [ 80, %19 ], [ 74, %18 ], [ 51, %17 ], [ 38, %16 ], [ 34, %15 ], [ 32, %14 ], [ 27, %1 ], [ 17, %.fold.split ], [ 27, %1 ]
  ret i32 %.0
}